; Function Attrs: nounwind uwtable
define internal range(i32 0, 2) i32 @dsa_to_type_specific_pem_encode(ptr noundef %0, ptr noundef %1, ptr noundef %2, ptr noundef readnone captures(address_is_null) %3, i32 noundef %4, ptr noundef %5, ptr noundef %6) #0 {
  %.not = icmp eq ptr %3, null
  br i1 %.not, label %9, label %8

8:                                                ; preds = %7
  tail call void @ERR_new() #5
  tail call void @ERR_set_debug(ptr noundef nonnull @.str, i32 noundef 1420, ptr noundef nonnull @__func__.dsa_to_type_specific_pem_encode) #5
  tail call void (i32, i32, ptr, ...) @ERR_set_error(i32 noundef 57, i32 noundef 524550, ptr noundef null) #5
  br label %key2any_encode.exit

9:                                                ; preds = %7
  %10 = and i32 %4, 1
  %.not17 = icmp eq i32 %10, 0
  br i1 %.not17, label %31, label %11

11:                                               ; preds = %9
  %12 = icmp eq ptr %2, null
  br i1 %12, label %13, label %14

13:                                               ; preds = %11
  tail call void @ERR_new() #5
  tail call void @ERR_set_debug(ptr noundef nonnull @.str, i32 noundef 1140, ptr noundef nonnull @__func__.key2any_encode) #5
  tail call void (i32, i32, ptr, ...) @ERR_set_error(i32 noundef 57, i32 noundef 786690, ptr noundef null) #5
  br label %key2any_encode.exit

14:                                               ; preds = %11
  %15 = load ptr, ptr %0, align 8, !tbaa !3
  %16 = tail call ptr @ossl_bio_new_from_core_bio(ptr noundef %15, ptr noundef %1) #5
  %.not28.i = icmp eq ptr %16, null
  br i1 %.not28.i, label %29, label %17

17:                                               ; preds = %14
  %18 = icmp eq ptr %5, null
  br i1 %18, label %22, label %19

19:                                               ; preds = %17
  %20 = getelementptr inbounds nuw i8, ptr %0, i64 24
  %21 = tail call i32 @ossl_pw_set_ossl_passphrase_cb(ptr noundef nonnull %20, ptr noundef nonnull %5, ptr noundef %6) #5
  %.not29.i = icmp eq i32 %21, 0
  br i1 %.not29.i, label %29, label %22

22:                                               ; preds = %19, %17
  %23 = getelementptr inbounds nuw i8, ptr %0, i64 24
  %24 = getelementptr inbounds nuw i8, ptr %0, i64 16
  %25 = load ptr, ptr %24, align 8, !tbaa !15
  %26 = tail call i32 @PEM_ASN1_write_bio_ctx(ptr noundef nonnull @dsa_prv_k2d, ptr noundef nonnull %0, ptr noundef nonnull @.str.8, ptr noundef nonnull %16, ptr noundef nonnull %2, ptr noundef %25, ptr noundef null, i32 noundef 0, ptr noundef nonnull @ossl_pw_pem_password, ptr noundef nonnull %23) #5
  %27 = icmp sgt i32 %26, 0
  %28 = zext i1 %27 to i32
  br label %29

29:                                               ; preds = %22, %19, %14
  %.1.i = phi i32 [ %28, %22 ], [ 0, %19 ], [ 0, %14 ]
  %30 = tail call i32 @BIO_free(ptr noundef %16) #5
  br label %key2any_encode.exit

31:                                               ; preds = %9
  %32 = and i32 %4, 2
  %.not18 = icmp eq i32 %32, 0
  br i1 %.not18, label %52, label %33

33:                                               ; preds = %31
  %34 = icmp eq ptr %2, null
  br i1 %34, label %35, label %36

35:                                               ; preds = %33
  tail call void @ERR_new() #5
  tail call void @ERR_set_debug(ptr noundef nonnull @.str, i32 noundef 1140, ptr noundef nonnull @__func__.key2any_encode) #5
  tail call void (i32, i32, ptr, ...) @ERR_set_error(i32 noundef 57, i32 noundef 786690, ptr noundef null) #5
  br label %key2any_encode.exit

36:                                               ; preds = %33
  %37 = load ptr, ptr %0, align 8, !tbaa !3
  %38 = tail call ptr @ossl_bio_new_from_core_bio(ptr noundef %37, ptr noundef %1) #5
  %.not28.i20 = icmp eq ptr %38, null
  br i1 %.not28.i20, label %50, label %39

39:                                               ; preds = %36
  %40 = icmp eq ptr %5, null
  br i1 %40, label %44, label %41

41:                                               ; preds = %39
  %42 = getelementptr inbounds nuw i8, ptr %0, i64 24
  %43 = tail call i32 @ossl_pw_set_ossl_passphrase_cb(ptr noundef nonnull %42, ptr noundef nonnull %5, ptr noundef %6) #5
  %.not29.i21 = icmp eq i32 %43, 0
  br i1 %.not29.i21, label %50, label %44

44:                                               ; preds = %41, %39
  %45 = getelementptr inbounds nuw i8, ptr %0, i64 16
  %46 = load ptr, ptr %45, align 8, !tbaa !15
  %47 = tail call i32 @PEM_ASN1_write_bio_ctx(ptr noundef nonnull @dsa_pub_k2d, ptr noundef nonnull %0, ptr noundef nonnull @.str.9, ptr noundef nonnull %38, ptr noundef nonnull %2, ptr noundef %46, ptr noundef null, i32 noundef 0, ptr noundef null, ptr noundef null) #5
  %48 = icmp sgt i32 %47, 0
  %49 = zext i1 %48 to i32
  br label %50

50:                                               ; preds = %44, %41, %36
  %.1.i22 = phi i32 [ %49, %44 ], [ 0, %41 ], [ 0, %36 ]
  %51 = tail call i32 @BIO_free(ptr noundef %38) #5
  br label %key2any_encode.exit

52:                                               ; preds = %31
  %53 = and i32 %4, 132
  %.not19 = icmp eq i32 %53, 0
  br i1 %.not19, label %68, label %54

54:                                               ; preds = %52
  %55 = icmp eq ptr %2, null
  br i1 %55, label %56, label %57

56:                                               ; preds = %54
  tail call void @ERR_new() #5
  tail call void @ERR_set_debug(ptr noundef nonnull @.str, i32 noundef 1140, ptr noundef nonnull @__func__.key2any_encode) #5
  tail call void (i32, i32, ptr, ...) @ERR_set_error(i32 noundef 57, i32 noundef 786690, ptr noundef null) #5
  br label %key2any_encode.exit

57:                                               ; preds = %54
  %58 = load ptr, ptr %0, align 8, !tbaa !3
  %59 = tail call ptr @ossl_bio_new_from_core_bio(ptr noundef %58, ptr noundef %1) #5
  %.not28.i25 = icmp eq ptr %59, null
  br i1 %.not28.i25, label %66, label %60

60:                                               ; preds = %57
  %61 = getelementptr inbounds nuw i8, ptr %0, i64 16
  %62 = load ptr, ptr %61, align 8, !tbaa !15
  %63 = tail call i32 @PEM_ASN1_write_bio_ctx(ptr noundef nonnull @dsa_param_k2d, ptr noundef nonnull %0, ptr noundef nonnull @.str.10, ptr noundef nonnull %59, ptr noundef nonnull %2, ptr noundef %62, ptr noundef null, i32 noundef 0, ptr noundef null, ptr noundef null) #5
  %64 = icmp sgt i32 %63, 0
  %65 = zext i1 %64 to i32
  br label %66

66:                                               ; preds = %60, %57
  %.1.i26 = phi i32 [ %65, %60 ], [ 0, %57 ]
  %67 = tail call i32 @BIO_free(ptr noundef %59) #5
  br label %key2any_encode.exit

68:                                               ; preds = %52
  tail call void @ERR_new() #5
  tail call void @ERR_set_debug(ptr noundef nonnull @.str, i32 noundef 1420, ptr noundef nonnull @__func__.dsa_to_type_specific_pem_encode) #5
  tail call void (i32, i32, ptr, ...) @ERR_set_error(i32 noundef 57, i32 noundef 524550, ptr noundef null) #5
  br label %key2any_encode.exit

key2any_encode.exit:                              ; preds = %66, %56, %50, %35, %29, %13, %68, %8
  %.0 = phi i32 [ 0, %8 ], [ 0, %68 ], [ 0, %13 ], [ %.1.i, %29 ], [ 0, %35 ], [ %.1.i22, %50 ], [ 0, %56 ], [ %.1.i26, %66 ]
  ret i32 %.0
}